; Function Attrs: nounwind uwtable
define internal fastcc zeroext i1 @_equalExplainStmt(ptr noundef nonnull readonly captures(none) %0, ptr noundef nonnull readonly captures(none) %1) unnamed_addr #0 {
  %3 = getelementptr inbounds nuw i8, ptr %0, i64 8
  %4 = load ptr, ptr %3, align 8
  %5 = getelementptr inbounds nuw i8, ptr %1, i64 8
  %6 = load ptr, ptr %5, align 8
  %7 = tail call zeroext i1 @equal(ptr noundef %4, ptr noundef %6)
  br i1 %7, label %8, label %14

8:                                                ; preds = %2
  %9 = getelementptr inbounds nuw i8, ptr %0, i64 16
  %10 = load ptr, ptr %9, align 8
  %11 = getelementptr inbounds nuw i8, ptr %1, i64 16
  %12 = load ptr, ptr %11, align 8
  %13 = tail call zeroext i1 @equal(ptr noundef %10, ptr noundef %12)
  br label %14

14:                                               ; preds = %8, %2
  %.0 = phi i1 [ false, %2 ], [ %13, %8 ]
  ret i1 %.0
}